target datalayout = "e-m:e-p270:32:32-p271:32:32-p272:64:64-i64:64-i128:128-f80:128-n8:16:32:64-S128"
target triple = "x86_64-pc-linux-gnu"

%struct.PROV_RSA_CTX = type { ptr, ptr, i32 }

@.str = private unnamed_addr constant [51 x i8] c"../openssl/providers/implementations/kem/rsa_kem.c\00", align 1
@__func__.rsasve_recover = private unnamed_addr constant [15 x i8] c"rsasve_recover\00", align 1

; Function Attrs: nounwind uwtable
define internal i32 @rsasve_recover(ptr noundef %0, ptr noundef %1, ptr noundef %2, ptr noundef %3, i64 noundef %4) #0 {
  %6 = alloca i32, align 4
  %7 = alloca ptr, align 8
  %8 = alloca ptr, align 8
  %9 = alloca ptr, align 8
  %10 = alloca ptr, align 8
  %11 = alloca i64, align 8
  %12 = alloca i64, align 8
  %13 = alloca i32, align 4
  %14 = alloca i32, align 4
  store ptr %0, ptr %7, align 8, !tbaa !3
  store ptr %1, ptr %8, align 8, !tbaa !15
  store ptr %2, ptr %9, align 8, !tbaa !17
  store ptr %3, ptr %10, align 8, !tbaa !15
  store i64 %4, ptr %11, align 8, !tbaa !19
  call void @llvm.lifetime.start.p0(i64 8, ptr %12) #5
  call void @llvm.lifetime.start.p0(i64 4, ptr %13) #5
  %15 = load ptr, ptr %7, align 8, !tbaa !3
  %16 = getelementptr inbounds nuw %struct.PROV_RSA_CTX, ptr %15, i32 0, i32 1
  %17 = load ptr, ptr %16, align 8, !tbaa !21
  %18 = call i32 @RSA_size(ptr noundef %17)
  %19 = sext i32 %18 to i64
  store i64 %19, ptr %12, align 8, !tbaa !19
  %20 = load ptr, ptr %8, align 8, !tbaa !15
  %21 = icmp eq ptr %20, null
  br i1 %21, label %22, label %29

22:                                               ; preds = %5
  %23 = load i64, ptr %12, align 8, !tbaa !19
  %24 = icmp eq i64 %23, 0
  br i1 %24, label %25, label %26

25:                                               ; preds = %22
  call void @ERR_new()
  call void @ERR_set_debug(ptr noundef @.str, i32 noundef 365, ptr noundef @__func__.rsasve_recover)
  call void (i32, i32, ptr, ...) @ERR_set_error(i32 noundef 57, i32 noundef 158, ptr noundef null)
  store i32 0, ptr %6, align 4
  store i32 1, ptr %14, align 4
  br label %65

26:                                               ; preds = %22
  %27 = load i64, ptr %12, align 8, !tbaa !19
  %28 = load ptr, ptr %9, align 8, !tbaa !17
  store i64 %27, ptr %28, align 8, !tbaa !19
  store i32 1, ptr %6, align 4
  store i32 1, ptr %14, align 4
  br label %65

29:                                               ; preds = %5
  %30 = load i64, ptr %11, align 8, !tbaa !19
  %31 = load i64, ptr %12, align 8, !tbaa !19
  %32 = icmp ne i64 %30, %31
  br i1 %32, label %33, label %34

33:                                               ; preds = %29
  call void @ERR_new()
  call void @ERR_set_debug(ptr noundef @.str, i32 noundef 377, ptr noundef @__func__.rsasve_recover)
  call void (i32, i32, ptr, ...) @ERR_set_error(i32 noundef 57, i32 noundef 142, ptr noundef null)
  store i32 0, ptr %6, align 4
  store i32 1, ptr %14, align 4
  br label %65

34:                                               ; preds = %29
  %35 = load ptr, ptr %9, align 8, !tbaa !17
  %36 = icmp ne ptr %35, null
  br i1 %36, label %37, label %43

37:                                               ; preds = %34
  %38 = load ptr, ptr %9, align 8, !tbaa !17
  %39 = load i64, ptr %38, align 8, !tbaa !19
  %40 = load i64, ptr %12, align 8, !tbaa !19
  %41 = icmp ult i64 %39, %40
  br i1 %41, label %42, label %43

42:                                               ; preds = %37
  call void @ERR_new()
  call void @ERR_set_debug(ptr noundef @.str, i32 noundef 387, ptr noundef @__func__.rsasve_recover)
  call void (i32, i32, ptr, ...) @ERR_set_error(i32 noundef 57, i32 noundef 217, ptr noundef null)
  store i32 0, ptr %6, align 4
  store i32 1, ptr %14, align 4
  br label %65

43:                                               ; preds = %37, %34
  %44 = load i64, ptr %11, align 8, !tbaa !19
  %45 = trunc i64 %44 to i32
  %46 = load ptr, ptr %10, align 8, !tbaa !15
  %47 = load ptr, ptr %8, align 8, !tbaa !15
  %48 = load ptr, ptr %7, align 8, !tbaa !3
  %49 = getelementptr inbounds nuw %struct.PROV_RSA_CTX, ptr %48, i32 0, i32 1
  %50 = load ptr, ptr %49, align 8, !tbaa !21
  %51 = call i32 @RSA_private_decrypt(i32 noundef %45, ptr noundef %46, ptr noundef %47, ptr noundef %50, i32 noundef 3)
  store i32 %51, ptr %13, align 4, !tbaa !25
  %52 = load i32, ptr %13, align 4, !tbaa !25
  %53 = icmp sgt i32 %52, 0
  br i1 %53, label %54, label %61

54:                                               ; preds = %43
  %55 = load ptr, ptr %9, align 8, !tbaa !17
  %56 = icmp ne ptr %55, null
  br i1 %56, label %57, label %61

57:                                               ; preds = %54
  %58 = load i32, ptr %13, align 4, !tbaa !25
  %59 = sext i32 %58 to i64
  %60 = load ptr, ptr %9, align 8, !tbaa !17
  store i64 %59, ptr %60, align 8, !tbaa !19
  br label %61

61:                                               ; preds = %57, %54, %43
  %62 = load i32, ptr %13, align 4, !tbaa !25
  %63 = icmp sgt i32 %62, 0
  %64 = zext i1 %63 to i32
  store i32 %64, ptr %6, align 4
  store i32 1, ptr %14, align 4
  br label %65

65:                                               ; preds = %61, %42, %33, %26, %25
  call void @llvm.lifetime.end.p0(i64 4, ptr %13) #5
  call void @llvm.lifetime.end.p0(i64 8, ptr %12) #5
  %66 = load i32, ptr %6, align 4
  ret i32 %66
}

; Function Attrs: nounwind uwtable
define internal i32 @rsakem_recover(ptr noundef %0, ptr noundef %1, ptr noundef %2, ptr noundef %3, i64 noundef %4) #0 {
  %6 = alloca i32, align 4
  %7 = alloca ptr, align 8
  %8 = alloca ptr, align 8
  %9 = alloca ptr, align 8
  %10 = alloca ptr, align 8
  %11 = alloca i64, align 8
  %12 = alloca ptr, align 8
  %13 = alloca i32, align 4
  store ptr %0, ptr %7, align 8, !tbaa !3
  store ptr %1, ptr %8, align 8, !tbaa !15
  store ptr %2, ptr %9, align 8, !tbaa !17
  store ptr %3, ptr %10, align 8, !tbaa !15
  store i64 %4, ptr %11, align 8, !tbaa !19
  call void @llvm.lifetime.start.p0(i64 8, ptr %12) #5
  %14 = load ptr, ptr %7, align 8, !tbaa !3
  store ptr %14, ptr %12, align 8, !tbaa !3
  %15 = call i32 @ossl_prov_is_running()
  %16 = icmp ne i32 %15, 0
  br i1 %16, label %18, label %17

17:                                               ; preds = %5
  store i32 0, ptr %6, align 4
  store i32 1, ptr %13, align 4
  br label %30

18:                                               ; preds = %5
  %19 = load ptr, ptr %12, align 8, !tbaa !3
  %20 = getelementptr inbounds nuw %struct.PROV_RSA_CTX, ptr %19, i32 0, i32 2
  %21 = load i32, ptr %20, align 8, !tbaa !12
  switch i32 %21, label %29 [
    i32 0, label %22
  ]

22:                                               ; preds = %18
  %23 = load ptr, ptr %12, align 8, !tbaa !3
  %24 = load ptr, ptr %8, align 8, !tbaa !15
  %25 = load ptr, ptr %9, align 8, !tbaa !17
  %26 = load ptr, ptr %10, align 8, !tbaa !15
  %27 = load i64, ptr %11, align 8, !tbaa !19
  %28 = call i32 @rsasve_recover(ptr noundef %23, ptr noundef %24, ptr noundef %25, ptr noundef %26, i64 noundef %27)
  store i32 %28, ptr %6, align 4
  store i32 1, ptr %13, align 4
  br label %30

29:                                               ; preds = %18
  store i32 -2, ptr %6, align 4
  store i32 1, ptr %13, align 4
  br label %30

30:                                               ; preds = %29, %22, %17
  call void @llvm.lifetime.end.p0(i64 8, ptr %12) #5
  %31 = load i32, ptr %6, align 4
  ret i32 %31
}