; Function Attrs: nounwind uwtable
define internal range(i32 -2, 2) i32 @rsakem_recover(ptr noundef readonly captures(none) %0, ptr noundef %1, ptr noundef captures(address_is_null) %2, ptr noundef %3, i64 noundef %4) #0 {
  %6 = tail call i32 @ossl_prov_is_running() #5
  %.not = icmp eq i32 %6, 0
  br i1 %.not, label %rsasve_recover.exit, label %7

7:                                                ; preds = %5
  %8 = getelementptr inbounds nuw i8, ptr %0, i64 16
  %9 = load i32, ptr %8, align 8, !tbaa !11
  %cond = icmp eq i32 %9, 0
  br i1 %cond, label %10, label %rsasve_recover.exit

10:                                               ; preds = %7
  %11 = getelementptr inbounds nuw i8, ptr %0, i64 8
  %12 = load ptr, ptr %11, align 8, !tbaa !12
  %13 = tail call i32 @RSA_size(ptr noundef %12) #5
  %14 = sext i32 %13 to i64
  %15 = icmp eq ptr %1, null
  br i1 %15, label %16, label %20

16:                                               ; preds = %10
  %17 = icmp eq i32 %13, 0
  br i1 %17, label %18, label %19

18:                                               ; preds = %16
  tail call void @ERR_new() #5
  tail call void @ERR_set_debug(ptr noundef nonnull @.str, i32 noundef 365, ptr noundef nonnull @__func__.rsasve_recover) #5
  tail call void (i32, i32, ptr, ...) @ERR_set_error(i32 noundef 57, i32 noundef 158, ptr noundef null) #5
  br label %rsasve_recover.exit

19:                                               ; preds = %16
  store i64 %14, ptr %2, align 8, !tbaa !13
  br label %rsasve_recover.exit

20:                                               ; preds = %10
  %.not.i = icmp eq i64 %4, %14
  br i1 %.not.i, label %22, label %21

21:                                               ; preds = %20
  tail call void @ERR_new() #5
  tail call void @ERR_set_debug(ptr noundef nonnull @.str, i32 noundef 377, ptr noundef nonnull @__func__.rsasve_recover) #5
  tail call void (i32, i32, ptr, ...) @ERR_set_error(i32 noundef 57, i32 noundef 142, ptr noundef null) #5
  br label %rsasve_recover.exit

22:                                               ; preds = %20
  %23 = icmp ne ptr %2, null
  br i1 %23, label %24, label %28

24:                                               ; preds = %22
  %25 = load i64, ptr %2, align 8, !tbaa !13
  %26 = icmp ult i64 %25, %4
  br i1 %26, label %27, label %28

27:                                               ; preds = %24
  tail call void @ERR_new() #5
  tail call void @ERR_set_debug(ptr noundef nonnull @.str, i32 noundef 387, ptr noundef nonnull @__func__.rsasve_recover) #5
  tail call void (i32, i32, ptr, ...) @ERR_set_error(i32 noundef 57, i32 noundef 217, ptr noundef null) #5
  br label %rsasve_recover.exit

28:                                               ; preds = %24, %22
  %29 = trunc nsw i64 %4 to i32
  %30 = load ptr, ptr %11, align 8, !tbaa !12
  %31 = tail call i32 @RSA_private_decrypt(i32 noundef %29, ptr noundef %3, ptr noundef nonnull %1, ptr noundef %30, i32 noundef 3) #5
  %32 = icmp sgt i32 %31, 0
  %or.cond.i = and i1 %23, %32
  br i1 %or.cond.i, label %33, label %35

33:                                               ; preds = %28
  %34 = zext nneg i32 %31 to i64
  store i64 %34, ptr %2, align 8, !tbaa !13
  br label %35

35:                                               ; preds = %33, %28
  %36 = zext i1 %32 to i32
  br label %rsasve_recover.exit

rsasve_recover.exit:                              ; preds = %35, %27, %21, %19, %18, %7, %5
  %.0 = phi i32 [ 0, %5 ], [ -2, %7 ], [ 0, %18 ], [ 1, %19 ], [ 0, %21 ], [ 0, %27 ], [ %36, %35 ]
  ret i32 %.0
}